target datalayout = "e-m:e-p270:32:32-p271:32:32-p272:64:64-i64:64-i128:128-f80:128-n8:16:32:64-S128"
target triple = "x86_64-pc-linux-gnu"

%struct.PKCS12_st = type { ptr, ptr, ptr }
%struct.PKCS12_MAC_DATA_st = type { ptr, ptr, ptr }

@.str = private unnamed_addr constant [36 x i8] c"../openssl/crypto/pkcs12/p12_mutl.c\00", align 1
@__func__.PKCS12_set_mac = private unnamed_addr constant [15 x i8] c"PKCS12_set_mac\00", align 1

; Function Attrs: nounwind uwtable
define i32 @PKCS12_setup_mac(ptr noundef %0, i32 noundef %1, ptr noundef %2, i32 noundef %3, ptr noundef %4) #0 {
  %6 = alloca ptr, align 8
  %7 = alloca i32, align 4
  %8 = alloca ptr, align 8
  %9 = alloca i32, align 4
  %10 = alloca ptr, align 8
  store ptr %0, ptr %6, align 8, !tbaa !3
  store i32 %1, ptr %7, align 4, !tbaa !37
  store ptr %2, ptr %8, align 8, !tbaa !35
  store i32 %3, ptr %9, align 4, !tbaa !37
  store ptr %4, ptr %10, align 8, !tbaa !55
  %11 = load ptr, ptr %6, align 8, !tbaa !3
  %12 = load i32, ptr %7, align 4, !tbaa !37
  %13 = load ptr, ptr %8, align 8, !tbaa !35
  %14 = load i32, ptr %9, align 4, !tbaa !37
  %15 = load ptr, ptr %10, align 8, !tbaa !55
  %16 = call i32 @EVP_MD_get_type(ptr noundef %15)
  %17 = call i32 @pkcs12_setup_mac(ptr noundef %11, i32 noundef %12, ptr noundef %13, i32 noundef %14, i32 noundef %16)
  ret i32 %17
}

; Function Attrs: nounwind uwtable
define i32 @PKCS12_set_mac(ptr noundef %0, ptr noundef %1, i32 noundef %2, ptr noundef %3, i32 noundef %4, i32 noundef %5, ptr noundef %6) #0 {
  %8 = alloca i32, align 4
  %9 = alloca ptr, align 8
  %10 = alloca ptr, align 8
  %11 = alloca i32, align 4
  %12 = alloca ptr, align 8
  %13 = alloca i32, align 4
  %14 = alloca i32, align 4
  %15 = alloca ptr, align 8
  %16 = alloca [64 x i8], align 16
  %17 = alloca i32, align 4
  %18 = alloca ptr, align 8
  %19 = alloca i32, align 4
  store ptr %0, ptr %9, align 8, !tbaa !3
  store ptr %1, ptr %10, align 8, !tbaa !35
  store i32 %2, ptr %11, align 4, !tbaa !37
  store ptr %3, ptr %12, align 8, !tbaa !35
  store i32 %4, ptr %13, align 4, !tbaa !37
  store i32 %5, ptr %14, align 4, !tbaa !37
  store ptr %6, ptr %15, align 8, !tbaa !55
  call void @llvm.lifetime.start.p0(i64 64, ptr %16) #4
  call void @llvm.lifetime.start.p0(i64 4, ptr %17) #4
  call void @llvm.lifetime.start.p0(i64 8, ptr %18) #4
  %20 = load ptr, ptr %15, align 8, !tbaa !55
  %21 = icmp eq ptr %20, null
  br i1 %21, label %22, label %24

22:                                               ; preds = %7
  %23 = call ptr @EVP_sha256()
  store ptr %23, ptr %15, align 8, !tbaa !55
  br label %24

24:                                               ; preds = %22, %7
  %25 = load i32, ptr %14, align 4, !tbaa !37
  %26 = icmp ne i32 %25, 0
  br i1 %26, label %28, label %27

27:                                               ; preds = %24
  store i32 2048, ptr %14, align 4, !tbaa !37
  br label %28

28:                                               ; preds = %27, %24
  %29 = load ptr, ptr %9, align 8, !tbaa !3
  %30 = load i32, ptr %14, align 4, !tbaa !37
  %31 = load ptr, ptr %12, align 8, !tbaa !35
  %32 = load i32, ptr %13, align 4, !tbaa !37
  %33 = load ptr, ptr %15, align 8, !tbaa !55
  %34 = call i32 @PKCS12_setup_mac(ptr noundef %29, i32 noundef %30, ptr noundef %31, i32 noundef %32, ptr noundef %33)
  %35 = icmp eq i32 %34, 0
  br i1 %35, label %36, label %37

36:                                               ; preds = %28
  call void @ERR_new()
  call void @ERR_set_debug(ptr noundef @.str, i32 noundef 358, ptr noundef @__func__.PKCS12_set_mac)
  call void (i32, i32, ptr, ...) @ERR_set_error(i32 noundef 35, i32 noundef 110, ptr noundef null)
  store i32 0, ptr %8, align 4
  store i32 1, ptr %19, align 4
  br label %58

37:                                               ; preds = %28
  %38 = load ptr, ptr %9, align 8, !tbaa !3
  %39 = load ptr, ptr %10, align 8, !tbaa !35
  %40 = load i32, ptr %11, align 4, !tbaa !37
  %41 = getelementptr inbounds [64 x i8], ptr %16, i64 0, i64 0
  %42 = call i32 @pkcs12_gen_mac(ptr noundef %38, ptr noundef %39, i32 noundef %40, ptr noundef %41, ptr noundef %17, i32 noundef 0, i32 noundef 0, ptr noundef null)
  %43 = icmp ne i32 %42, 0
  br i1 %43, label %45, label %44

44:                                               ; preds = %37
  call void @ERR_new()
  call void @ERR_set_debug(ptr noundef @.str, i32 noundef 365, ptr noundef @__func__.PKCS12_set_mac)
  call void (i32, i32, ptr, ...) @ERR_set_error(i32 noundef 35, i32 noundef 109, ptr noundef null)
  store i32 0, ptr %8, align 4
  store i32 1, ptr %19, align 4
  br label %58

45:                                               ; preds = %37
  %46 = load ptr, ptr %9, align 8, !tbaa !3
  %47 = getelementptr inbounds nuw %struct.PKCS12_st, ptr %46, i32 0, i32 1
  %48 = load ptr, ptr %47, align 8, !tbaa !8
  %49 = getelementptr inbounds nuw %struct.PKCS12_MAC_DATA_st, ptr %48, i32 0, i32 0
  %50 = load ptr, ptr %49, align 8, !tbaa !17
  call void @X509_SIG_getm(ptr noundef %50, ptr noundef null, ptr noundef %18)
  %51 = load ptr, ptr %18, align 8, !tbaa !21
  %52 = getelementptr inbounds [64 x i8], ptr %16, i64 0, i64 0
  %53 = load i32, ptr %17, align 4, !tbaa !37
  %54 = call i32 @ASN1_OCTET_STRING_set(ptr noundef %51, ptr noundef %52, i32 noundef %53)
  %55 = icmp ne i32 %54, 0
  br i1 %55, label %57, label %56

56:                                               ; preds = %45
  call void @ERR_new()
  call void @ERR_set_debug(ptr noundef @.str, i32 noundef 370, ptr noundef @__func__.PKCS12_set_mac)
  call void (i32, i32, ptr, ...) @ERR_set_error(i32 noundef 35, i32 noundef 111, ptr noundef null)
  store i32 0, ptr %8, align 4
  store i32 1, ptr %19, align 4
  br label %58

57:                                               ; preds = %45
  store i32 1, ptr %8, align 4
  store i32 1, ptr %19, align 4
  br label %58

58:                                               ; preds = %57, %56, %44, %36
  call void @llvm.lifetime.end.p0(i64 8, ptr %18) #4
  call void @llvm.lifetime.end.p0(i64 4, ptr %17) #4
  call void @llvm.lifetime.end.p0(i64 64, ptr %16) #4
  %59 = load i32, ptr %8, align 4
  ret i32 %59
}