; Function Attrs: nounwind uwtable
define range(i32 0, 2) i32 @PKCS12_set_mac(ptr noundef captures(none) %0, ptr noundef %1, i32 noundef %2, ptr noundef captures(address_is_null) %3, i32 noundef %4, i32 noundef %5, ptr noundef %6) local_unnamed_addr #1 {
  %8 = alloca [64 x i8], align 16
  %9 = alloca i32, align 4
  %10 = alloca ptr, align 8
  call void @llvm.lifetime.start.p0(i64 64, ptr nonnull %8) #5
  call void @llvm.lifetime.start.p0(i64 4, ptr nonnull %9) #5
  call void @llvm.lifetime.start.p0(i64 8, ptr nonnull %10) #5
  %11 = icmp eq ptr %6, null
  br i1 %11, label %12, label %14

12:                                               ; preds = %7
  %13 = tail call ptr @EVP_sha256() #5
  br label %14

14:                                               ; preds = %12, %7
  %.0 = phi ptr [ %13, %12 ], [ %6, %7 ]
  %.not = icmp eq i32 %5, 0
  %spec.store.select = select i1 %.not, i32 2048, i32 %5
  %15 = tail call i32 @EVP_MD_get_type(ptr noundef %.0) #5
  %16 = tail call fastcc range(i32 0, 2) i32 @pkcs12_setup_mac(ptr noundef %0, i32 noundef %spec.store.select, ptr noundef %3, i32 noundef %4, i32 noundef %15)
  %17 = icmp eq i32 %16, 0
  br i1 %17, label %18, label %19

18:                                               ; preds = %14
  tail call void @ERR_new() #5
  tail call void @ERR_set_debug(ptr noundef nonnull @.str, i32 noundef 358, ptr noundef nonnull @__func__.PKCS12_set_mac) #5
  tail call void (i32, i32, ptr, ...) @ERR_set_error(i32 noundef 35, i32 noundef 110, ptr noundef null) #5
  br label %30

19:                                               ; preds = %14
  %20 = call fastcc i32 @pkcs12_gen_mac(ptr noundef %0, ptr noundef %1, i32 noundef %2, ptr noundef nonnull %8, ptr noundef nonnull %9, i32 noundef 0, i32 noundef 0, ptr noundef null)
  %.not13 = icmp eq i32 %20, 0
  br i1 %.not13, label %21, label %22

21:                                               ; preds = %19
  call void @ERR_new() #5
  call void @ERR_set_debug(ptr noundef nonnull @.str, i32 noundef 365, ptr noundef nonnull @__func__.PKCS12_set_mac) #5
  call void (i32, i32, ptr, ...) @ERR_set_error(i32 noundef 35, i32 noundef 109, ptr noundef null) #5
  br label %30

22:                                               ; preds = %19
  %23 = getelementptr inbounds nuw i8, ptr %0, i64 8
  %24 = load ptr, ptr %23, align 8, !tbaa !3
  %25 = load ptr, ptr %24, align 8, !tbaa !11
  call void @X509_SIG_getm(ptr noundef %25, ptr noundef null, ptr noundef nonnull %10) #5
  %26 = load ptr, ptr %10, align 8, !tbaa !15
  %27 = load i32, ptr %9, align 4, !tbaa !47
  %28 = call i32 @ASN1_OCTET_STRING_set(ptr noundef %26, ptr noundef nonnull %8, i32 noundef %27) #5
  %.not14 = icmp eq i32 %28, 0
  br i1 %.not14, label %29, label %30

29:                                               ; preds = %22
  call void @ERR_new() #5
  call void @ERR_set_debug(ptr noundef nonnull @.str, i32 noundef 370, ptr noundef nonnull @__func__.PKCS12_set_mac) #5
  call void (i32, i32, ptr, ...) @ERR_set_error(i32 noundef 35, i32 noundef 111, ptr noundef null) #5
  br label %30

30:                                               ; preds = %22, %29, %21, %18
  %.011 = phi i32 [ 0, %18 ], [ 0, %29 ], [ 0, %21 ], [ 1, %22 ]
  call void @llvm.lifetime.end.p0(i64 8, ptr nonnull %10) #5
  call void @llvm.lifetime.end.p0(i64 4, ptr nonnull %9) #5
  call void @llvm.lifetime.end.p0(i64 64, ptr nonnull %8) #5
  ret i32 %.011
}